; Function Attrs: nounwind uwtable
define ptr @l_Lean_IR_ExpandResetReuse_setFields(ptr noundef %0, ptr noundef readonly captures(none) %1, ptr noundef %2) local_unnamed_addr #1 {
lean_dec.exit:
  %3 = getelementptr i8, ptr %1, i64 8
  %.val = load i64, ptr %3, align 8, !tbaa !9
  %4 = shl i64 %.val, 1
  %5 = or disjoint i64 %4, 1
  %6 = inttoptr i64 %5 to ptr
  %7 = tail call ptr @l_Nat_foldTR_loop___at_Lean_IR_ExpandResetReuse_setFields___spec__1(ptr noundef %0, ptr noundef %1, ptr noundef nonnull %6, ptr noundef nonnull %6, ptr nonnull poison, ptr noundef %2)
  ret ptr %7
}